(dp0
(V025
p1
V10
p2
V0
p3
tp4
(dp5
Vcaveman
p6
(dp7
S'response_verbs'
p8
(lp9
(lp10
Vbe
p11
aa(lp12
a(lp13
Vbe
p14
aVserve
p15
aasS'responses'
p16
(lp17
VThe air conditioning was too strong.
p18
aVIt cold.
p19
aVThe dessert was served.
p20
assVoriginal
p21
(dp22
g8
(lp23
(lp24
Vsuck
p25
aa(lp26
Vbe
p27
aVbe
p28
aasg16
(lp29
VThe weather in Michigan winters sucks, especially in this old house.
p30
aVIt's so cold out now and the door is drafty.
p31
assS'orig_main_verb'
p32
Vstart
p33
sVevent_only
p34
(dp35
g8
(lp36
(lp37
Vput
p38
aVdecide
p39
aVstay
p40
aa(lp41
Vhave
p42
aa(lp43
Vhave
p44
aVturn
p45
aasg16
(lp46
VPutting our best judgement aside we decided to stay 
p47
aVThe person had to commute outdoors in very cold weather.
p48
aVThe restaurant had the AC turned up high.
p49
asss(V025
p50
V47
p51
V1
p52
tp53
(dp54
Vcaveman
p55
(dp56
g8
(lp57
(lp58
Vneed
p59
aa(lp60
Veat
p61
aa(lp62
Vorder
p63
aa(lp64
Vcome
p65
aa(lp66
Vask
p67
aasg16
(lp68
VI needed a refill. 
p69
aVThey ate their meal.
p70
aVWe both ordered the same thing.
p71
aVwhen will the waiter come
p72
aVHe ask.
p73
assg32
Vmentioned
p74
sVevent_only
p75
(dp76
g8
(lp77
(lp78
Vcome
p79
aa(lp80
Vcome
p81
aa(lp82
Vcome
p83
aa(lp84
Vtake
p85
aasg16
(lp86
VThe waiter comes quickly.
p87
aVThe waiter comes quickly.
p88
aVWaiter come quick.
p89
aVHe took our order.
p90
asss(V177
p91
V168
p92
V2
p93
tp94
(dp95
Vcaveman
p96
(dp97
g8
(lp98
(lp99
a(lp100
Vlet
p101
aVdecide
p102
aa(lp103
Vdo
p104
aa(lp105
Vlaugh
p106
aasg16
(lp107
VShe mad.
p108
aVAs for what women order, a lot of them let their husband decide.
p109
aVThe husband did not mind.
p110
aVEveryone laughs at him.
p111
assg32
Vembarrassed
p112
sVoriginal
p113
(dp114
g8
(lp115
(lp116
Vaccuse
p117
aVbe
p118
aVstare
p119
aa(lp120
Vbe
p121
aVlike
p122
aVkeep
p123
aa(lp124
Vbe
p125
aVthink
p126
aVbe
p127
aVdivorce
p128
aasg16
(lp129
VShe accused us of being cheap so loudly everyone in the restaurant stared at her, and then us.
p130
aVIt may be strange to most people, but we like to keep track of our own food bills.
p131
aVIt's like they thought we were divorced.
p132
asss(V023
p133
V88
p134
V1
p135
tp136
(dp137
Vcaveman
p138
(dp139
g8
(lp140
(lp141
Vexplain
p142
aa(lp143
Vexplain
p144
aa(lp145
Vgo
p146
aa(lp147
Vapologize
p148
aasg16
(lp149
VHe explained it to me, though.
p150
aVHe explains.
p151
aVwhere should i go.
p152
aVI apologize.
p153
assVoriginal
p154
(dp155
g8
(lp156
(lp157
Vtell
p158
aVbe
p159
aa(lp160
Vtell
p161
aVbe
p162
aa(lp163
Vhave
p164
aVbring
p165
aVdo
p166
aVaccept
p167
aasg16
(lp168
VI told the guest that their coupons were not any good here.
p169
aVI told the guest that their coupons were not any good here.
p170
aVThey had brought coupons in that we didn't normally accept.
p171
assg32
Vinterrupted
p172
sVevent_only
p173
(dp174
g8
(lp175
(lp176
Vdecide
p177
aVdo
p178
aa(lp179
Vdecide
p180
aVmeet
p181
aa(lp182
Vapologize
p183
aasg16
(lp184
VI decide what to do.
p185
aVThe group decided to meet around 8pm. 
p186
aVI apologized.
p187
asss(V022
p188
V48
p189
V1
p190
tp191
(dp192
Vcaveman
p193
(dp194
g8
(lp195
(lp196
Vrun
p197
aa(lp198
Vwork
p199
aa(lp200
Vbe
p201
aasg16
(lp202
VI run this place.
p203
aVI work.
p204
aVThey are employees.
p205
assVoriginal
p206
(dp207
g8
(lp208
(lp209
Vsuspect
p210
aVbe
p211
aa(lp212
Vbe
p213
aVlook
p214
aVdo
p215
aa(lp216
Vcomplain
p217
aVproceed
p218
aVknock
p219
aasg16
(lp220
VI strongly suspected the customer was a drunk.
p221
aVThe patron was unruly, but looked too drunk to do anything about it.
p222
aVThe man loudly complained and then proceeded to knock a glass off the bar.
p223
assg32
Vtrying
p224
sVevent_only
p225
(dp226
g8
(lp227
(lp228
Vbe
p229
aa(lp230
Vbe
p231
aasg16
(lp232
VI am now the manager at work/
p233
aVI am the manager.
p234
asss(V050
p235
V110
p236
V1
p237
tp238
(dp239
Vcaveman
p240
(dp241
g8
(lp242
(lp243
Vwant
p244
aVbuy
p245
aa(lp246
Vbe
p247
aVtalk
p248
aVretire
p249
aasg16
(lp250
VShe wants us to buy an RV.
p251
aVMy wife is talking to me about retiring from work.
p252
assVoriginal
p253
(dp254
g8
(lp255
(lp256
Vbe
p257
aa(lp258
Vbe
p259
aasg16
(lp260
VWe are on a fixed income.
p261
aVOur server was extremely rude to us at the restaurant.
p262
assg32
Vhot
p263
sVevent_only
p264
(dp265
g8
(lp266
(lp267
Vdecide
p268
aVthink
p269
aa(lp270
Vretire
p271
aVrefuse
p272
aVwonder
p273
aVchoose
p274
aa(lp275
Vwonder
p276
aVwin
p277
aa(lp278
Vneed
p279
aVwork
p280
aasg16
(lp281
VShe decided to think it over before signing. 
p282
aVThe person's wife retired, but he refused to and wondered why his wife chose to.
p283
aVI wonder who will win.
p284
aVI still need to work.
p285
asss(V248
p286
V86
p287
V1
p288
tp289
(dp290
Vcaveman
p291
(dp292
g8
(lp293
(lp294
Vbe
p295
aa(lp296
a(lp297
Vbe
p298
aa(lp299
Vwait
p300
aasg16
(lp301
VThe restaurant is very busy.
p302
aVThey order.
p303
aVWe were in a hurry.
p304
aVI wait.
p305
assVevent_only
p306
(dp307
g8
(lp308
(lp309
Vfeel
p310
aVhave
p311
aVorder
p312
aa(lp313
Vgo
p314
aa(lp315
Vorder
p316
aasg16
(lp317
VWe all felt that we had ordered enough food for the whole group
p318
aVSomething went terribly wrong
p319
aVOther people order their food.
p320
assg32
Vcame
p321
sVoriginal
p322
(dp323
g8
(lp324
(lp325
Voffer
p326
aa(lp327
Voffer
p328
aVmake
p329
aasg16
(lp330
VShe offered us apple pie instead.
p331
aVThey offered to make me a fresh new pie. 
p332
asss(V086
p333
V40
p334
V1
p335
tp336
(dp337
Vcaveman
p338
(dp339
g8
(lp340
(lp341
Vfind
p342
aVwant
p343
aa(lp344
Vdecide
p345
aVorder
p346
aa(lp347
Vdo
p348
aa(lp349
Vdo
p350
aa(lp351
Vdecide
p352
aVorder
p353
aa(lp354
Vaccept
p355
aa(lp356
Vaccept
p357
aasg16
(lp358
VI found a bug in my food, and wanted a free meal. 
p359
aVWe decided to order the special.
p360
aVwhat soup did the waitress offer
p361
aVwhat soup did the waitress offer
p362
aVI decided to order another.
p363
aVI accepted her offer.
p364
aVI accept.
p365
assVevent_only
p366
(dp367
g8
(lp368
(lp369
Voffer
p370
aVbe
p371
aVseat
p372
aa(lp373
Vdecide
p374
aVhave
p375
aa(lp376
Vaccept
p377
aasg16
(lp378
VThe waitress offered them something while they were seated.
p379
aVWe decided not to have a dessert
p380
aVWe accept the offer.
p381
assg32
Vhad
p382
sVoriginal
p383
(dp384
g8
(lp385
(lp386
Vthink
p387
aVbe
p388
aa(lp389
Vbe
p390
aVseem
p391
aVdislike
p392
aa(lp393
Vbe
p394
aasg16
(lp395
VI thought she was very rude.
p396
aVThe waitress was helpful but seemed to dislike me.
p397
aVwhen they were half full
p398
asss(V022
p399
V78
p400
V1
p401
tp402
(dp403
Vcaveman
p404
(dp405
g8
(lp406
(lp407
Vbe
p408
aa(lp409
Vhave
p410
aVleave
p411
aa(lp412
Vdo
p413
aVallow
p414
aa(lp415
Vleave
p416
aasg16
(lp417
VIt was very frustrating.
p418
aVWe had to leave our dog outside in the car.
p419
aVWhat rules do we not allow?
p420
aVWe leave.
p421
assVoriginal
p422
(dp423
g8
(lp424
(lp425
Vend
p426
aa(lp427
Venjoy
p428
aa(lp429
Vmake
p430
aasg16
(lp431
VWe ended up with a goodnight.
p432
aVWe enjoyed the night just fine.
p433
aVWe made up for the evening later on.
p434
assg32
Vthink
p435
sVevent_only
p436
(dp437
g8
(lp438
(lp439
Vorder
p440
aa(lp441
Vbe
p442
aVexplain
p443
aVallow
p444
aVdo
p445
aa(lp446
Vallow
p447
aVgive
p448
aa(lp449
Vask
p450
aVswitch
p451
aasg16
(lp452
Vwe order appetizers 
p453
aVSomeone was explaining what human beings, in general, allow others to do to them.
p454
aVWe allow our server to give us more details about the special of the day
p455
aVThey asked if we would switch tables. 
p456
asss(V120
p457
V125
p458
V1
p459
tp460
(dp461
Vcaveman
p462
(dp463
g8
(lp464
(lp465
Vask
p466
aVlike
p467
aa(lp468
Vsay
p469
aVworry
p470
aa(lp471
Vkeep
p472
aa(lp473
Vleave
p474
aasg16
(lp475
VThe waiter asks me what I would like to order.
p476
aVShe said not to worry about it.
p477
aVwhich one should we keep
p478
aVWaiter leaves.
p479
assVoriginal
p480
(dp481
g8
(lp482
(lp483
Vseem
p484
aVbe
p485
aVgo
p486
aasg16
(lp487
VIt seemed as though he was going to kiss my mum.
p488
assg32
Vstanding
p489
sVevent_only
p490
(dp491
g8
(lp492
(lp493
Vgo
p494
aVtalk
p495
aVwant
p496
aVplace
p497
aa(lp498
Vconverse
p499
aa(lp500
Vbe
p501
aa(lp502
Vlook
p503
aasg16
(lp504
VA child went with their parent to an auction, talked to his mother about what she wanted and then he placed a bid for her.
p505
aVThe mum conversed with her friend.
p506
aVThat was the make or break moment
p507
aVShe looked over the menu.
p508
asss(V050
p509
V110
p510
V3
p511
tp512
(dp513
Vcaveman
p514
(dp515
g8
(lp516
(lp517
Vrefuse
p518
aVcook
p519
aVstate
p520
aVbe
p521
aa(lp522
a(lp523
Vcomplain
p524
aa(lp525
Vask
p526
aasg16
(lp527
VMy wife refused to cook me anymore meals, stating that she was too busy. 
p528
aVShe mad.
p529
aVI complained to the manager
p530
aVI ask.
p531
assVevent_only
p532
(dp533
g8
(lp534
(lp535
Vrefuse
p536
aVpay
p537
aa(lp538
Vbring
p539
aasg16
(lp540
VI refused to pay the bill!
p541
aVThe waiter brought us free dessert anyway.
p542
assg32
Vwonder
p543
sVoriginal
p544
(dp545
g8
(lp546
(lp547
Vbe
p548
aVget
p549
aa(lp550
Vwant
p551
aVhave
p552
aa(lp553
Vbe
p554
aa(lp555
Voffer
p556
aVtake
p557
aasg16
(lp558
VHe wasn't getting a penny more from me.
p559
aVWe just wanted a nice meal, but instead we have a terrible service.
p560
aVWe will not be back.
p561
aVHe offered to take it back to the kitchen to heat it up
p562
asss(V086
p563
V40
p564
V0
p565
tp566
(dp567
Vcaveman
p568
(dp569
g8
(lp570
(lp571
Vdo
p572
aVget
p573
aa(lp574
Vlike
p575
aa(lp576
Vhave
p577
aVfeel
p578
aVbe
p579
aa(lp580
Vdo
p581
aVhave
p582
aVleave
p583
aa(lp584
Vgive
p585
aasg16
(lp586
VDid you get an acceptance letter yet?
p587
aVI like.
p588
aVI have never felt so lively, today was a wonderful day.
p589
aVDo have any batteries left?
p590
aVHe gives.
p591
assVoriginal
p592
(dp593
g8
(lp594
(lp595
Vkeep
p596
aVwait
p597
aVtake
p598
aVget
p599
aa(lp600
Vhear
p601
aVdo
p602
aVpay
p603
aa(lp604
Vbe
p605
aasg16
(lp606
VI kept waiting but it took awhile to get the waiter's attention.
p607
aVThe waitress either can't hear or doesn't pay attention.
p608
aVMy waitress wasn't very attentive.
p609
assg32
Voffered
p610
sVevent_only
p611
(dp612
g8
(lp613
(lp614
Vwant
p615
aVget
p616
aa(lp617
Vbe
p618
aVhave
p619
aVreceive
p620
aa(lp621
Vhave
p622
aa(lp623
Vask
p624
aVbe
p625
aasg16
(lp626
VI wanted to get ice cream.
p627
aVNone of us are happy with the service we have received 
p628
aVI have money.
p629
aVOur waiter asked if we'd been here before.
p630
asss(V050
p631
V110
p632
V2
p633
tp634
(dp635
Vcaveman
p636
(dp637
g8
(lp638
(lp639
Vseem
p640
aVhave
p641
aVbe
p642
aVreheat
p643
aa(lp644
Vdo
p645
aVlike
p646
aVbe
p647
aVleave
p648
aa(lp649
Vretire
p650
aa(lp651
Vask
p652
aa(lp653
Vget
p654
aasg16
(lp655
VIt seemed like the food had been reheated.
p656
aVShe usually doesn't like a sink of dirty dishes being left.
p657
aVWhy would my wife retire.
p658
aVI ask.
p659
aVI get home from work late.
p660
assg32
Vrefused
p661
sVevent_only
p662
(dp663
g8
(lp664
(lp665
Vretire
p666
aVwash
p667
aasg16
(lp668
VMy wife finally retired now she washes lots of dishes.
p669
asss(V271
p670
V18
p671
V2
p672
tp673
(dp674
Vcaveman
p675
(dp676
g8
(lp677
(lp678
Vbe
p679
aa(lp680
Vbe
p681
aa(lp682
Vleave
p683
aasg16
(lp684
VThe food was overcooked and not good. 
p685
aVThe staff were very rude.
p686
aVWe leave.
p687
assVevent_only
p688
(dp689
g8
(lp690
(lp691
Vbe
p692
aVgo
p693
aVleave
p694
aVoffer
p695
aVstay
p696
aVdo
p697
aa(lp698
Vmake
p699
aasg16
(lp700
VThey were going to leave, but the waiter offered them an incentive to stay, so they did.
p701
aVWe made a good choice
p702
assg32
Vtip
p703
sVoriginal
p704
(dp705
g8
(lp706
(lp707
Vwant
p708
aVleave
p709
aVbe
p710
aVgo
p711
aasg16
(lp712
VHe wanted us to leave but we weren't going anywhere.
p713
asss(V151
p714
V102
p715
V7
p716
tp717
(dp718
Vcaveman
p719
(dp720
g8
(lp721
(lp722
Vask
p723
aVspeak
p724
aa(lp725
a(lp726
a(lp727
Vask
p728
aasg16
(lp729
VI asked to speak to a manager.
p730
aVSalad back.
p731
aVHow should i reply
p732
aVI asked for the manager.
p733
assg32
Vstarted
p734
sVoriginal
p735
(dp736
g8
(lp737
(lp738
Vget
p739
aVbegin
p740
aVwalk
p741
aa(lp742
Vbegin
p743
aVleave
p744
aa(lp745
Vget
p746
aVhead
p747
aasg16
(lp748
VWe got up and began to walk out of the restaurant.
p749
aVWe began leaving the restaurant.
p750
aVWe got up and headed for the door.
p751
asss(V120
p752
V41
p753
V0
p754
tp755
(dp756
Vcaveman
p757
(dp758
g8
(lp759
(lp760
Varrive
p761
aa(lp762
Vpick
p763
aa(lp764
a(lp765
Vbe
p766
aVgreet
p767
aa(lp768
Vdecide
p769
aasg16
(lp770
VWe arrived early.
p771
aVWe picked a restaurant.
p772
aVWe hungry.
p773
aVWe were greeted by the hostess
p774
aVWe decide.
p775
assg32
Vgood
p776
sVoriginal
p777
(dp778
g8
(lp779
(lp780
Vhave
p781
aVget
p782
aVgo
p783
aa(lp784
Vend
p785
aVcarry
p786
aa(lp787
Vbe
p788
aVbe
p789
aa(lp790
Vdecide
p791
aVtry
p792
aasg16
(lp793
VMy family has gotten me to go to a restaurant.
p794
aVWe ended up carrying on quite a conversation with the waitress.
p795
aVI was happy to be out at lunch.
p796
aVWe decided to try the new restaurant with good reviews.
p797
asss(V271
p798
V18
p799
V1
p800
tp801
(dp802
Vcaveman
p803
(dp804
g8
(lp805
(lp806
Vpay
p807
aa(lp808
Vbe
p809
aa(lp810
Vsign
p811
aasg16
(lp812
VI pay.
p813
aVThe entire experience was lovely.
p814
aVI sign.
p815
assVevent_only
p816
(dp817
g8
(lp818
(lp819
Vthank
p820
aasg16
(lp821
VWe thank him.
p822
assg32
Vremained
p823
sVoriginal
p824
(dp825
g8
(lp826
(lp827
Vbe
p828
aVhave
p829
aasg16
(lp830
VThis was the worse experience I ever had a restaurant.
p831
asss(V248
p832
V86
p833
V0
p834
tp835
(dp836
Vcaveman
p837
(dp838
g8
(lp839
(lp840
Vwait
p841
aVbe
p842
aVseat
p843
aa(lp844
Vtake
p845
aVbe
p846
aVseat
p847
aa(lp848
Vsit
p849
aa(lp850
Vorder
p851
aa(lp852
Varrive
p853
aa(lp854
Vcall
p855
aa(lp856
Vsit
p857
aasg16
(lp858
VWe waited forever to be seated. 
p859
aVIt took a long time for us to be seated.
p860
aVI sat down at the table in the restaurant.
p861
aVWhat soup should I order
p862
aVWe all arrive on time for our meal.
p863
aVI called the restaurant
p864
aVGroup sit.
p865
assVoriginal
p866
(dp867
g8
(lp868
(lp869
Vbe
p870
aVwave
p871
aVneed
p872
aa(lp873
Vdo
p874
aVknow
p875
aVlook
p876
aVbe
p877
aa(lp878
Vmake
p879
aa(lp880
Vbe
p881
aVgo
p882
aasg16
(lp883
VI was waving to the waitress that we needed our bill.
p884
aVWe did not know what the bill would look like, since the rest of the experience was so bad.
p885
aVThe waitress made several mistakes on our order.
p886
aVI'm never going to this restaurant again.
p887
assg32
Vordered
p888
sVevent_only
p889
(dp890
g8
(lp891
(lp892
Vsit
p893
aa(lp894
Vplace
p895
aVhave
p896
aVwait
p897
aVfeel
p898
aVbe
p899
aa(lp900
Vorder
p901
aa(lp902
Vmake
p903
aVget
p904
aasg16
(lp905
VWe sit down.
p906
aVThey placed an order and had to wait for what they felt was an unreasonable amount of time.
p907
aVI order a pizza.
p908
aVWe made a reservation and got a table quickly.
p909
asss(V151
p910
V62
p911
V0
p912
tp913
(dp914
Vcaveman
p915
(dp916
g8
(lp917
(lp918
Vbe
p919
aa(lp920
Vdo
p921
aVlook
p922
aa(lp923
Vlook
p924
aVnotice
p925
aa(lp926
Vleave
p927
aa(lp928
Vgrab
p929
aasg16
(lp930
VThe salad bar was completely empty. 
p931
aVSomething didn't look right on the plate.
p932
aVI looked down at my salad and noticed something.
p933
aVWe left at the same time.
p934
aVI grab.
p935
assVoriginal
p936
(dp937
g8
(lp938
(lp939
Vorder
p940
aVnotice
p941
aVbe
p942
aa(lp943
Vlook
p944
aVnotice
p945
aa(lp946
Vfind
p947
aasg16
(lp948
VI ordered a salad, and noticed there was something wrong.
p949
aVI looked on the table and I noticed a tissue.
p950
aVI found a snot rag in my salad.
p951
assg32
Vsticking
p952
sVevent_only
p953
(dp954
g8
(lp955
(lp956
Vneed
p957
aVsneeze
p958
aa(lp959
Vhappen
p960
aVbe
p961
aa(lp962
Vpush
p963
aasg16
(lp964
VI needed to sneeze.
p965
aVWhat happened next was really funny.
p966
aVI pushed.
p967
asss(V153
p968
V22
p969
V0
p970
tp971
(dp972
Vcaveman
p973
(dp974
g8
(lp975
(lp976
Vbe
p977
aa(lp978
Vbe
p979
aa(lp980
Vorder
p981
aa(lp982
Vsee
p983
aasg16
(lp984
VOur meal was great.
p985
aVIt was a mystery.
p986
aVI ordered a meal.
p987
aVI see.
p988
assVoriginal
p989
(dp990
g8
(lp991
(lp992
Vbe
p993
aasg16
(lp994
VThe price of the menu was absolutely ridiculous.
p995
assg32
Vordered
p996
sVevent_only
p997
(dp998
g8
(lp999
(lp1000
Vlook
p1001
aVget
p1002
aa(lp1003
Vwork
p1004
aasg16
(lp1005
VWe all look forward to getting together. 
p1006
aVIt worked.
p1007
asss(V151
p1008
V102
p1009
V5
p1010
tp1011
(dp1012
Vcaveman
p1013
(dp1014
g8
(lp1015
(lp1016
Vask
p1017
aVneed
p1018
aa(lp1019
Vask
p1020
aasg16
(lp1021
VThe waiter asks if we need anything else.
p1022
aVWaiter ask.
p1023
assg32
Vdelivered
p1024
sVevent_only
p1025
(dp1026
g8
(lp1027
(lp1028
Vask
p1029
aVlike
p1030
aVorder
p1031
aa(lp1032
Vhave
p1033
aVinform
p1034
aa(lp1035
Vorder
p1036
aa(lp1037
Vwait
p1038
aVask
p1039
aVtaste
p1040
aasg16
(lp1041
VHe asked if we would like to order anything else 
p1042
aVThey had a negative experience at a restaurant, which they informed the manager of.
p1043
aVWe order two Cokes.
p1044
aVOur waited asked how our food tasted.
p1045
asss(V196
p1046
V68
p1047
V3
p1048
tp1049
(dp1050
Vcaveman
p1051
(dp1052
g8
(lp1053
(lp1054
Vrefuse
p1055
aVpay
p1056
aVmake
p1057
aa(lp1058
Vask
p1059
aasg16
(lp1060
VThe couple refused to pay for their meals, and made quite the scene. 
p1061
aVThe man asks for the time.
p1062
assVevent_only
p1063
(dp1064
g8
(lp1065
(lp1066
Vthrow
p1067
aVmake
p1068
aVyell
p1069
aVexplain
p1070
aVhappen
p1071
aVassure
p1072
aVstay
p1073
aasg16
(lp1074
VSomeone threw something, which made the manager yell, and then the manager to explain what happened and assure a couple to stay.
p1075
assg32
Vput
p1076
sVoriginal
p1077
(dp1078
g8
(lp1079
(lp1080
Vdo
p1081
aVbelieve
p1082
aVstorm
p1083
aVproduce
p1084
aa(lp1085
Vask
p1086
aVdo
p1087
aVknow
p1088
aVbe
p1089
aa(lp1090
Vget
p1091
aVscoff
p1092
aVwalk
p1093
aasg16
(lp1094
VWhen the man didn't believe him, the manager stormed into the kitchen and produced a book from the fridge.
p1095
aVThe man asked the manager, how do they know for sure they were 10 oz.
p1096
aVThe man got up, scoffed at the manager and walked towards the door.
p1097
asss(V191
p1098
V11
p1099
V3
p1100
tp1101
(dp1102
Vcaveman
p1103
(dp1104
g8
(lp1105
(lp1106
Vthrow
p1107
aa(lp1108
a(lp1109
Vtell
p1110
aVdo
p1111
aa(lp1112
Vtell
p1113
aVbe
p1114
aVneed
p1115
aVmeet
p1116
aa(lp1117
a(lp1118
Vbegin
p1119
aVthrow
p1120
aasg16
(lp1121
VThe boy threw his fork across the dining room. 
p1122
aVSon bad.
p1123
aVI told my son not to do that again.
p1124
aVBut I told him there would be certain conditions he would need to meet.
p1125
aVSon misbehave.
p1126
aVMy son began to throw a tantrum
p1127
assVoriginal
p1128
(dp1129
g8
(lp1130
(lp1131
Vdo
p1132
aVwant
p1133
aVdisturb
p1134
aasg16
(lp1135
VWe didn't want him to disturb other diners.
p1136
assg32
Vthings
p1137
sVevent_only
p1138
(dp1139
g8
(lp1140
(lp1141
Vgive
p1142
aVbehave
p1143
aa(lp1144
Vask
p1145
aVanswer
p1146
aVtell
p1147
aVbehave
p1148
aVrealize
p1149
aVblame
p1150
aVbe
p1151
aVkid
p1152
aa(lp1153
Vtell
p1154
aVsit
p1155
aVleave
p1156
aasg16
(lp1157
VWe gave our son a gift for behaving.
p1158
aVHe asked his son a question, his son answered with a joke and then the parent told the son to behave, and realized that they blamed the son, even though he was kidding.
p1159
aVI told my son to sit down or else we'd leave.
p1160
asss(V033
p1161
V76
p1162
V0
p1163
tp1164
(dp1165
Vcaveman
p1166
(dp1167
g8
(lp1168
(lp1169
Vbe
p1170
aVchoose
p1171
aa(lp1172
Vdo
p1173
aVknow
p1174
aVdo
p1175
aa(lp1176
Vhave
p1177
aVmake
p1178
aVbe
p1179
aVget
p1180
aa(lp1181
Vdiscuss
p1182
aa(lp1183
Vbe
p1184
aVdecide
p1185
aa(lp1186
Vargue
p1187
aVget
p1188
aa(lp1189
Vask
p1190
aasg16
(lp1191
VThere were a lot of options to choose from.
p1192
aVShe doesn't know what to do.
p1193
aVShe had just to make her decision on the menu but was getting close.
p1194
aVWe discussed it at length. 
p1195
aVShe was finally able to decide.
p1196
aVWe argued about what we would get.
p1197
aVHe asks.
p1198
assVoriginal
p1199
(dp1200
g8
(lp1201
(lp1202
Vhave
p1203
aVbe
p1204
aVtalk
p1205
aa(lp1206
Vhave
p1207
aVbe
p1208
aVbe
p1209
aa(lp1210
Vlook
p1211
aVhold
p1212
aa(lp1213
Vkeep
p1214
aVchange
p1215
aVhave
p1216
aVbe
p1217
aVtalk
p1218
aasg16
(lp1219
VShe has been talking on the phone all night.
p1220
aVMartha has been being a complete pain all night.
p1221
aVI looked at the rude woman on her cellphone as she held up the rest of the line.
p1222
aVThe woman kept changing her order, and had been talking on her phone for five minutes.
p1223
assg32
Vbreaks
p1224
sVevent_only
p1225
(dp1226
g8
(lp1227
(lp1228
Vask
p1229
aVwant
p1230
aa(lp1231
Vdecide
p1232
aVbreak
p1233
aa(lp1234
Vdecide
p1235
aVwin
p1236
aa(lp1237
Vgo
p1238
aa(lp1239
Vread
p1240
aasg16
(lp1241
VI asked what she wanted.
p1242
aVShe decided to break up with someone.
p1243
aVShe decide who wins.
p1244
aVWhere to go for dinner?As usual,
p1245
aVThe waiter read us the specials.
p1246
asss(V153
p1247
V22
p1248
V1
p1249
tp1250
(dp1251
Vcaveman
p1252
(dp1253
g8
(lp1254
(lp1255
Vcome
p1256
aa(lp1257
Veat
p1258
aa(lp1259
Vbe
p1260
aVplace
p1261
aa(lp1262
Vrelax
p1263
aVtake
p1264
aVarrive
p1265
aa(lp1266
Vdo
p1267
aVcare
p1268
aa(lp1269
Veat
p1270
aa(lp1271
Vbe
p1272
aasg16
(lp1273
VThe waiter came to the table at last. 
p1274
aVI eat.
p1275
aVI was in the drive-thru at Mcdonalds, I placed my order.
p1276
aVWe relaxed and took our time when the meal arrived.
p1277
aVWhy do you care about what I order
p1278
aVI eat.
p1279
aVI am ready to order.
p1280
assVoriginal
p1281
(dp1282
g8
(lp1283
(lp1284
Vbe
p1285
aa(lp1286
Vhave
p1287
aVbe
p1288
aa(lp1289
Vhave
p1290
aVpay
p1291
aa(lp1292
Vhave
p1293
aVbe
p1294
aVgo
p1295
aVpay
p1296
aa(lp1297
Vtell
p1298
aVbe
p1299
aVneed
p1300
aVget
p1301
aasg16
(lp1302
VI was so embarrassed.
p1303
aVI have never been so embarrassed.
p1304
aVI had no money to pay. 
p1305
aVI had no idea how I was going to pay for the food.
p1306
aVThe waitress told me there was an ATM next door if I needed to get cash.
p1307
assg32
Vthing
p1308
sVevent_only
p1309
(dp1310
g8
(lp1311
(lp1312
Veat
p1313
aVbe
p1314
aa(lp1315
Vbe
p1316
aVplace
p1317
aa(lp1318
Vorder
p1319
aa(lp1320
Vwait
p1321
aVtaste
p1322
aa(lp1323
Vlook
p1324
aasg16
(lp1325
VI eat and it is good.
p1326
aVSomeone was placing an order at a restaurant.
p1327
aVI order a sandwich.
p1328
aVI could not wait to taste that delicious burrito
p1329
aVI looked over the menu.
p1330
asss(V271
p1331
V18
p1332
V0
p1333
tp1334
(dp1335
Vcaveman
p1336
(dp1337
g8
(lp1338
(lp1339
Vgo
p1340
aa(lp1341
Vstart
p1342
aVeat
p1343
aa(lp1344
a(lp1345
Vhave
p1346
aa(lp1347
Vbe
p1348
aasg16
(lp1349
VWe went to a restaurant with free WiFi.
p1350
aVWe started another conversation while we ate.
p1351
aVHow much should i tip
p1352
aVWe had rude service.
p1353
aVThe service was horrible
p1354
assVoriginal
p1355
(dp1356
g8
(lp1357
(lp1358
Vbe
p1359
aa(lp1360
Vbe
p1361
aa(lp1362
Vstay
p1363
aVtip
p1364
aVhave
p1365
aa(lp1366
Vkeep
p1367
aVtry
p1368
aVrush
p1369
aVfinish
p1370
aasg16
(lp1371
VThe annoying waiter was a real douche.
p1372
aVOur waiter was totally awful. 
p1373
aVWe stayed at the table longer than normal and I tipped more than I should have.
p1374
aVOur waiter kept trying to rush us to finish our meals.
p1375
assg32
Vsaid
p1376
sVevent_only
p1377
(dp1378
g8
(lp1379
(lp1380
Vgo
p1381
aa(lp1382
Vhave
p1383
aVleave
p1384
aa(lp1385
Vremain
p1386
aVleave
p1387
aa(lp1388
Vfinish
p1389
aVwait
p1390
aasg16
(lp1391
VWe went to the restaurant.
p1392
aVA few of our guests had to leave early.
p1393
aVWe remained in the restaurant to leave a tip.
p1394
aVWe finished our meal and waited for the bill.
p1395
asss(V033
p1396
V76
p1397
V1
p1398
tp1399
(dp1400
Vcaveman
p1401
(dp1402
g8
(lp1403
(lp1404
Vcrash
p1405
aa(lp1406
Vbreak
p1407
aa(lp1408
Vdo
p1409
aVbreak
p1410
aa(lp1411
Vbuy
p1412
aasg16
(lp1413
VThe dishes crashed to the floor. 
p1414
aVI break.
p1415
aVwhat bone did she break
p1416
aVShe buy.
p1417
assVevent_only
p1418
(dp1419
g8
(lp1420
(lp1421
Vbe
p1422
aVhear
p1423
aa(lp1424
Vapologize
p1425
aasg16
(lp1426
VWe were interested in hearing about the specials. 
p1427
aVWe apologized many times.
p1428
assg32
Vdecides
p1429
sVoriginal
p1430
(dp1431
g8
(lp1432
(lp1433
Vleave
p1434
aVpour
p1435
aa(lp1436
Vbe
p1437
aVdrink
p1438
aasg16
(lp1439
VLoose tea leaves poured out everywhere.
p1440
aVNow my tea is so strong I can't drink it.
p1441
asss(V022
p1442
V78
p1443
V0
p1444
tp1445
(dp1446
Vcaveman
p1447
(dp1448
g8
(lp1449
(lp1450
Vbe
p1451
aa(lp1452
Vthink
p1453
aVbe
p1454
aVhave
p1455
aa(lp1456
Vthink
p1457
aVbe
p1458
aa(lp1459
Vsuggest
p1460
aasg16
(lp1461
VThe food at this place is delicious. 
p1462
aVYou think you was correct, but really you had it all wrong.
p1463
aVI think the meal was good.
p1464
aVThe waiter suggested an option.
p1465
assg32
Vallow
p1466
sVevent_only
p1467
(dp1468
g8
(lp1469
(lp1470
Vstand
p1471
aasg16
(lp1472
VWe stood around.
p1473
asss(V196
p1474
V68
p1475
V5
p1476
tp1477
(dp1478
Vcaveman
p1479
(dp1480
g8
(lp1481
(lp1482
Vleave
p1483
aVpay
p1484
aa(lp1485
Vbe
p1486
aa(lp1487
Vdecide
p1488
aVleave
p1489
aasg16
(lp1490
VThe people left without paying.
p1491
aVWHo could this couple be.
p1492
aVThey decided to leave the restaurant.
p1493
assVoriginal
p1494
(dp1495
g8
(lp1496
(lp1497
Veat
p1498
aVdecide
p1499
aVrun
p1500
aasg16
(lp1501
VThe couple ate some and decided to run out on the bill.
p1502
assg32
Vthrow
p1503
sVevent_only
p1504
(dp1505
g8
(lp1506
(lp1507
Vdo
p1508
aVgive
p1509
aa(lp1510
Vbe
p1511
aVwant
p1512
aVmake
p1513
aa(lp1514
Vput
p1515
aa(lp1516
Vask
p1517
aVbe
p1518
aVcomp
p1519
aa(lp1520
Vask
p1521
aVbe
p1522
aVcomp
p1523
aasg16
(lp1524
VI did not give in/
p1525
aVThe point was that we wanted it made our way 
p1526
aVHe put the headphones on.
p1527
aVWe asked for our meal to be comped.
p1528
aVThey asked for their meal to be comped.
p1529
asss(V177
p1530
V168
p1531
V0
p1532
tp1533
(dp1534
Vcaveman
p1535
(dp1536
g8
(lp1537
(lp1538
Vforget
p1539
aVpay
p1540
aa(lp1541
Vspill
p1542
aa(lp1543
Vwalk
p1544
aVdrop
p1545
aa(lp1546
a(lp1547
Vdrop
p1548
aasg16
(lp1549
VI forgot my wallet at home, and could not pay for my food. 
p1550
aVThe waiter spilled my drink on me.
p1551
aVWhen I walked into the cafeteria I dropped my plate.
p1552
aVI trip.
p1553
aVI drop.
p1554
assVoriginal
p1555
(dp1556
g8
(lp1557
(lp1558
Vcome
p1559
aVthreaten
p1560
aVsue
p1561
aa(lp1562
Vknock
p1563
aasg16
(lp1564
VMy wife came completely unglued and threatened to sue the restaurant.
p1565
aVMy friend knocked over a dessert cart at a restaurant.
p1566
assg32
Vdecided
p1567
sVevent_only
p1568
(dp1569
g8
(lp1570
(lp1571
Vdo
p1572
aa(lp1573
Vdrop
p1574
aa(lp1575
Vdrop
p1576
aasg16
(lp1577
VSomeone did something embarrassing in public.
p1578
aVMy pants somehow dropped
p1579
aVI dropped the plate.
p1580
asss(V063
p1581
V84
p1582
V0
p1583
tp1584
(dp1585
Vcaveman
p1586
(dp1587
g8
(lp1588
(lp1589
Vbe
p1590
aVturn
p1591
aa(lp1592
Vcome
p1593
aa(lp1594
Vstop
p1595
aVtalk
p1596
aVapproach
p1597
aa(lp1598
Vwalk
p1599
aa(lp1600
Vsit
p1601
aasg16
(lp1602
VThe web server was turned on.
p1603
aVFood come.
p1604
aVWe stop talking at the waiter approaches the table.
p1605
aVWalk up to server.
p1606
aVI sit.
p1607
assVoriginal
p1608
(dp1609
g8
(lp1610
(lp1611
Vcomplain
p1612
aVbe
p1613
aVoverdo
p1614
aa(lp1615
Vtell
p1616
aVbe
p1617
aVovercook
p1618
aasg16
(lp1619
VMy wife complained that her steak was overdone.
p1620
aVMy wife told the server that her steak was overcooked.
p1621
assg32
Vseconds
p1622
sVevent_only
p1623
(dp1624
g8
(lp1625
(lp1626
Vsee
p1627
aVbe
p1628
aVblur
p1629
aVwrite
p1630
aa(lp1631
Vgo
p1632
aa(lp1633
a(lp1634
Vsit
p1635
aasg16
(lp1636
VAll I can see is blurred words and 'server start' written over them?
p1637
aVDespite that we went ahead with our order 
p1638
aVServer start soon.
p1639
aVWe sat down.
p1640
asss(V191
p1641
V133
p1642
V0
p1643
tp1644
(dp1645
Vcaveman
p1646
(dp1647
g8
(lp1648
(lp1649
Vwant
p1650
aVwin
p1651
aasg16
(lp1652
VWe wanted to win.
p1653
assVevent_only
p1654
(dp1655
g8
(lp1656
(lp1657
Vdo
p1658
aVseem
p1659
aasg16
(lp1660
VThings did not seem clear.
p1661
assg32
Vwaited
p1662
sVoriginal
p1663
(dp1664
g8
(lp1665
(lp1666
Vbe
p1667
aVsit
p1668
aVupset
p1669
aVhave
p1670
aVarrive
p1671
aa(lp1672
Vhave
p1673
aVbe
p1674
aVwait
p1675
aa(lp1676
Vbe
p1677
aVbelieve
p1678
aVhave
p1679
aasg16
(lp1680
VWe were all sitting there impatiently and upset that our food has not arrived.
p1681
aVWe'd been waiting for food for nearly forty minutes
p1682
aVIt was hard to believe that they already had their food.
p1683
asss(V191
p1684
V11
p1685
V4
p1686
tp1687
(dp1688
Vcaveman
p1689
(dp1690
g8
(lp1691
(lp1692
Vbe
p1693
aa(lp1694
Vbe
p1695
aa(lp1696
Vmake
p1697
aa(lp1698
Vmake
p1699
aasg16
(lp1700
VIt wasn't the restaurant's fault, though.
p1701
aVwhat would we be
p1702
aVThe son accidentally makes a mess.
p1703
aVHe make mistake.
p1704
assVoriginal
p1705
(dp1706
g8
(lp1707
(lp1708
Vwear
p1709
aVcrash
p1710
aa(lp1711
Vstart
p1712
aVscream
p1713
aVbe
p1714
aVtire
p1715
aasg16
(lp1716
VHe eventually wore out and crashed.
p1717
aVMy kid started to scream loudly, because he was tired.
p1718
assg32
Vbehaving
p1719
sVevent_only
p1720
(dp1721
g8
(lp1722
(lp1723
Vplease
p1724
aVget
p1725
aa(lp1726
Vblame
p1727
aa(lp1728
Vapologize
p1729
aasg16
(lp1730
VPlease get the manager 
p1731
aVWe blame the criminals.
p1732
aVWe apologized for the problem.
p1733
asss(V063
p1734
V84
p1735
V1
p1736
tp1737
(dp1738
Vcaveman
p1739
(dp1740
g8
(lp1741
(lp1742
Vcome
p1743
aa(lp1744
Vbe
p1745
aa(lp1746
Vstop
p1747
aa(lp1748
Vbe
p1749
aVsee
p1750
aVcome
p1751
aa(lp1752
Veat
p1753
aa(lp1754
Vbe
p1755
aasg16
(lp1756
VThe waiter came to the table. 
p1757
aVThe service was very fast.
p1758
aVI stopped the watch just in time.
p1759
aVYou'll be able to see in seconds come
p1760
aVI can definitely still eat more.
p1761
aVThe food was great.
p1762
assVoriginal
p1763
(dp1764
g8
(lp1765
(lp1766
Vhave
p1767
aVbe
p1768
aVsit
p1769
aVeat
p1770
aa(lp1771
Vtell
p1772
aVbe
p1773
aa(lp1774
Vhave
p1775
aVbring
p1776
aa(lp1777
Vcome
p1778
aVask
p1779
aasg16
(lp1780
VI have been sitting there eating my food silently.
p1781
aVWe told him it was great.
p1782
aVA server had just brought out food.
p1783
aVShe came back and asked us about the meal.
p1784
assg32
Vstarted
p1785
sVevent_only
p1786
(dp1787
g8
(lp1788
(lp1789
Vbe
p1790
aVwant
p1791
aVpass
p1792
aa(lp1793
Vhave
p1794
aVbe
p1795
aVwait
p1796
aVarrive
p1797
aa(lp1798
Vwork
p1799
aVeat
p1800
aasg16
(lp1801
VSomeone was impatient and wanted to the time to pass quickly.
p1802
aVthe moment we had been waiting for finally arrived
p1803
aVWe then worked on eating the food.
p1804
asss(V196
p1805
V68
p1806
V6
p1807
tp1808
(dp1809
Vcaveman
p1810
(dp1811
g8
(lp1812
(lp1813
Vleave
p1814
aVpay
p1815
aa(lp1816
Vleave
p1817
aa(lp1818
Vthrow
p1819
aVstorm
p1820
aa(lp1821
Vthink
p1822
aVbe
p1823
aa(lp1824
Vleave
p1825
aa(lp1826
asg16
(lp1827
VHe leaves without paying.
p1828
aVHe leave.
p1829
aVAfter he threw the ticket he stormed out of the place.
p1830
aVI thought to myself that it was a waste of food.
p1831
aVHe leave.
p1832
aVMan leave.
p1833
assVoriginal
p1834
(dp1835
g8
(lp1836
(lp1837
Vbe
p1838
aVget
p1839
aVagitate
p1840
aVappear
p1841
aVbecome
p1842
aa(lp1843
Vthink
p1844
aVbe
p1845
aVgive
p1846
aVorder
p1847
aasg16
(lp1848
VAfter the third steak, the man was getting visibly agitated, and appeared to become violent.
p1849
aVThe man next to us thought they weren't giving him the full size of steak he ordered.
p1850
assg32
Vshouted
p1851
sVevent_only
p1852
(dp1853
g8
(lp1854
(lp1855
Vbe
p1856
aa(lp1857
Vwalk
p1858
aasg16
(lp1859
VHe was not at all satisfied
p1860
aVThe couple walked out of the restaurant.
p1861
asss(V171
p1862
V29
p1863
V1
p1864
tp1865
(dp1866
Vcaveman
p1867
(dp1868
g8
(lp1869
(lp1870
Vhappen
p1871
aa(lp1872
Vhave
p1873
aa(lp1874
Vknow
p1875
aVexpect
p1876
aa(lp1877
Vdo
p1878
aVhappen
p1879
aa(lp1880
asg16
(lp1881
VIt happened on a weekend. 
p1882
aVWe still had a good time, though.
p1883
aVYou never know what to expect this time of year.
p1884
aVWhen did it happen on holiday
p1885
aVHoliday end.
p1886
assg32
Vpouring
p1887
sVevent_only
p1888
(dp1889
g8
(lp1890
(lp1891
Vbe
p1892
aVanticipate
p1893
aVbe
p1894
aVhappen
p1895
aVdo
p1896
aa(lp1897
Vhappen
p1898
aVbe
p1899
aVlose
p1900
aa(lp1901
Vbe
p1902
aVsurprise
p1903
aasg16
(lp1904
VSomething they were anticipating, but weren't positive would happen, did.
p1905
aVIt happened that that particular Mondays that Chinese restaurant was c losed
p1906
aVWe were surprised.
p1907
asss(V120
p1908
V41
p1909
V2
p1910
tp1911
(dp1912
Vcaveman
p1913
(dp1914
g8
(lp1915
(lp1916
Vbe
p1917
aVtell
p1918
aVcome
p1919
aVcheck
p1920
aa(lp1921
Vneed
p1922
aVask
p1923
aasg16
(lp1924
VMy steak was slightly undercooked, which I told her when she came back to check in on us. 
p1925
aVI need to ask for another item.
p1926
assVoriginal
p1927
(dp1928
g8
(lp1929
(lp1930
Vdo
p1931
aVlike
p1932
aVcause
p1933
aasg16
(lp1934
VWe don't like to cause a fuss.
p1935
assg32
Vseated
p1936
sVevent_only
p1937
(dp1938
g8
(lp1939
(lp1940
Vfinish
p1941
aa(lp1942
Vhave
p1943
aVhave
p1944
aVbe
p1945
aVmake
p1946
aa(lp1947
Vsit
p1948
aasg16
(lp1949
VWe finish eating.
p1950
aVA few of has that had been there before made suggestions. 
p1951
aVWe sat down.
p1952
asss(V177
p1953
V20
p1954
V1
p1955
tp1956
(dp1957
Vcaveman
p1958
(dp1959
g8
(lp1960
(lp1961
Vgo
p1962
aa(lp1963
Vbe
p1964
aVcome
p1965
aVwork
p1966
aasg16
(lp1967
VThey go to a restaurant.
p1968
aVIt would be a dream come true despite the details to work out.
p1969
assVoriginal
p1970
(dp1971
g8
(lp1972
(lp1973
Vspot
p1974
aasg16
(lp1975
VWe spotted a couple of friends there.
p1976
assg32
Vwere
p1977
sVevent_only
p1978
(dp1979
g8
(lp1980
(lp1981
Vcome
p1982
aa(lp1983
Vbe
p1984
aVshow
p1985
aa(lp1986
Vgo
p1987
aa(lp1988
asg16
(lp1989
VMy friend came over.
p1990
aVWe were the first ones to show up 
p1991
aVMother go to bed.
p1992
aVSister orders.
p1993
asss(V171
p1994
V29
p1995
V0
p1996
tp1997
(dp1998
Vcaveman
p1999
(dp2000
g8
(lp2001
(lp2002
Vwalk
p2003
aVbegin
p2004
aVpour
p2005
aa(lp2006
Varrive
p2007
aasg16
(lp2008
VAs I walked out side the rain began to pour like mad.
p2009
aVWe arrive.
p2010
assVevent_only
p2011
(dp2012
g8
(lp2013
(lp2014
Vbrough
p2015
aa(lp2016
Vpour
p2017
aasg16
(lp2018
VThe waitress brough a pitcher out from the bar. 
p2019
aVIt poured rain.
p2020
assg32
Vhappened
p2021
sVoriginal
p2022
(dp2023
g8
(lp2024
(lp2025
Vbe
p2026
aVbe
p2027
aa(lp2028
Vbe
p2029
aVwalk
p2030
aVnotice
p2031
aa(lp2032
Vbe
p2033
aa(lp2034
Venjoy
p2035
aVscream
p2036
aasg16
(lp2037
VIt was a Friday, so the restaurant was full.
p2038
aVI was walking outside and noticed a restaurant.
p2039
aVThe next location was extremely small.
p2040
aVI couldn't enjoy my meal, because of two screaming babies in the restaurant.
p2041
asss(V243
p2042
V41
p2043
V1
p2044
tp2045
(dp2046
Vcaveman
p2047
(dp2048
g8
(lp2049
(lp2050
Veat
p2051
aa(lp2052
Vtalk
p2053
aVwalk
p2054
aa(lp2055
Vbe
p2056
aVwelcome
p2057
aa(lp2058
Venter
p2059
aasg16
(lp2060
VWe eat.
p2061
aVWe talk while we walk towards the table.
p2062
aVThe atmosphere was warm and welcoming.
p2063
aVWe enter.
p2064
assVoriginal
p2065
(dp2066
g8
(lp2067
(lp2068
Vlove
p2069
aa(lp2070
Vseem
p2071
aVtalk
p2072
aasg16
(lp2073
VWe love this restaurant.
p2074
aVThe restaurant seemed loud with all the people talking.
p2075
assg32
Vamicable
p2076
sVevent_only
p2077
(dp2078
g8
(lp2079
(lp2080
Vask
p2081
aa(lp2082
Vbe
p2083
aVescort
p2084
aVrequest
p2085
aa(lp2086
Vbe
p2087
aa(lp2088
Vask
p2089
aasg16
(lp2090
VWe ask for a table. 
p2091
aVWe were escorted back to the booth we requested. 
p2092
aVWe were very hungry
p2093
aVWe asked for a table for two.
p2094
asss(V023
p2095
V88
p2096
V4
p2097
tp2098
(dp2099
Vcaveman
p2100
(dp2101
g8
(lp2102
(lp2103
Vlie
p2104
aa(lp2105
Vlook
p2106
aVtake
p2107
aa(lp2108
Vask
p2109
aasg16
(lp2110
VI lie.
p2111
aVThen he looks at what he took out of my hands.
p2112
aVHe asked a question about the restaurant.
p2113
assVoriginal
p2114
(dp2115
g8
(lp2116
(lp2117
Vbe
p2118
aVupset
p2119
aasg16
(lp2120
VHowever the customers were still upset.
p2121
assg32
Vtold
p2122
sVevent_only
p2123
(dp2124
g8
(lp2125
(lp2126
Vbe
p2127
aa(lp2128
Vcome
p2129
aa(lp2130
Vask
p2131
aasg16
(lp2132
VThere was an argument between a couple.
p2133
aVHe comes back to the table
p2134
aVI asked for the specials.
p2135
asss(V171
p2136
V58
p2137
V0
p2138
tp2139
(dp2140
Vcaveman
p2141
(dp2142
g8
(lp2143
(lp2144
Vgo
p2145
aa(lp2146
Vcome
p2147
aa(lp2148
Vfind
p2149
aVenjoy
p2150
aa(lp2151
Varrive
p2152
aasg16
(lp2153
VI went to a restaurant.
p2154
aVI come.
p2155
aVI find a table to enjoy my meal.
p2156
aVI arrived at the restaurant.
p2157
assVoriginal
p2158
(dp2159
g8
(lp2160
(lp2161
Vgo
p2162
aVtell
p2163
aVwait
p2164
aa(lp2165
Vtell
p2166
aVbe
p2167
aVreserve
p2168
aVhave
p2169
aasg16
(lp2170
VI went to a restaurant and they told me to wait for an open table. 
p2171
aVThey told me that the booth was reserved and so I couldn't have it.
p2172
assg32
Vfreezing
p2173
sVevent_only
p2174
(dp2175
g8
(lp2176
(lp2177
Vbring
p2178
aVpoint
p2179
aa(lp2180
Vget
p2181
aasg16
(lp2182
VWhen the waiter brought our food he pointed something out to me.
p2183
aVWe quickly got a table. 
p2184
asss(V243
p2185
V41
p2186
V0
p2187
tp2188
(dp2189
Vcaveman
p2190
(dp2191
g8
(lp2192
(lp2193
Vdecide
p2194
aVgo
p2195
aa(lp2196
Vdo
p2197
aVask
p2198
aa(lp2199
Vdo
p2200
aVask
p2201
aa(lp2202
Venter
p2203
aa(lp2204
Varrive
p2205
aasg16
(lp2206
VWe decided which restaurant to go to.
p2207
aVwhat did she ask
p2208
aVwhat did she ask
p2209
aVWe enter.
p2210
aVWe arrived at the restaurant.
p2211
assVevent_only
p2212
(dp2213
g8
(lp2214
(lp2215
Vmake
p2216
aasg16
(lp2217
VWe made reservations.
p2218
assg32
Vgood
p2219
sVoriginal
p2220
(dp2221
g8
(lp2222
(lp2223
Vgo
p2224
aa(lp2225
Vcome
p2226
aVseat
p2227
aa(lp2228
Vbe
p2229
aVbe
p2230
aasg16
(lp2231
VWe went to our regular restaurant on Friday night.
p2232
aVThe waiter came and seated us.
p2233
aVWe're friendly, but I'm shy.
p2234
asss(V023
p2235
V88
p2236
V5
p2237
tp2238
(dp2239
Vcaveman
p2240
(dp2241
g8
(lp2242
(lp2243
Vlook
p2244
aa(lp2245
Vthink
p2246
aa(lp2247
Vask
p2248
aa(lp2249
Vbegin
p2250
aVget
p2251
aasg16
(lp2252
VThe desert at the other table looked appetizing. 
p2253
aVI thought about it for some time.
p2254
aVHe ask.
p2255
aVI begin to get upset.
p2256
assVevent_only
p2257
(dp2258
g8
(lp2259
(lp2260
Vgo
p2261
aasg16
(lp2262
VI go to the room.
p2263
assg32
Vtold
p2264
sVoriginal
p2265
(dp2266
g8
(lp2267
(lp2268
Vask
p2269
aVtake
p2270
aa(lp2271
Vmake
p2272
aVtolerate
p2273
aa(lp2274
Vbe
p2275
aasg16
(lp2276
VThe customer asked why I couldn't take more money off the bill.
p2277
aVI made it clear that I wouldn't tolerate that type of behavior either.
p2278
aVThe couple were so disrespectful to me.
p2279
asss(V025
p2280
V10
p2281
V1
p2282
tp2283
(dp2284
Vcaveman
p2285
(dp2286
g8
(lp2287
(lp2288
Vbe
p2289
aa(lp2290
Vend
p2291
aa(lp2292
Vdecide
p2293
aVorder
p2294
aasg16
(lp2295
VIt was a great experience.
p2296
aVIt end.
p2297
aVI decide to order it as well.
p2298
assVoriginal
p2299
(dp2300
g8
(lp2301
(lp2302
Vbe
p2303
aVhave
p2304
aVwait
p2305
aVbe
p2306
aVseat
p2307
aa(lp2308
Vtell
p2309
aVbe
p2310
aa(lp2311
Vbe
p2312
aa(lp2313
Vnotice
p2314
aVbe
p2315
aVhave
p2316
aVbe
p2317
aasg16
(lp2318
VThe restaurant was busy and we had to wait to be seated.
p2319
aVI can tell by the emptiness of the restaurant that it wouldn't be good.
p2320
aVMy day was horrible.
p2321
aVI noticed a server on staff that day was the same one who'd been rude to me before.
p2322
assg32
Vfreezing
p2323
sVevent_only
p2324
(dp2325
g8
(lp2326
(lp2327
Vbe
p2328
aa(lp2329
Vbe
p2330
aasg16
(lp2331
VSo it will be.
p2332
aVAnd indeed it was so.
p2333
asss(V243
p2334
V21
p2335
V0
p2336
tp2337
(dp2338
Vcaveman
p2339
(dp2340
g8
(lp2341
(lp2342
Vdo
p2343
aVfind
p2344
aa(lp2345
Vdo
p2346
aVknow
p2347
aVbe
p2348
aa(lp2349
Vbe
p2350
aVdecide
p2351
aVeat
p2352
aasg16
(lp2353
VHow often do people find bugs in their food?
p2354
aVWe didn't know what some of the dishes were.
p2355
aVI am deciding on what to eat.
p2356
assVoriginal
p2357
(dp2358
g8
(lp2359
(lp2360
Vask
p2361
aasg16
(lp2362
VThe waitress asked for my order.
p2363
assg32
Vcame
p2364
sVevent_only
p2365
(dp2366
g8
(lp2367
(lp2368
Vmake
p2369
aVhave
p2370
aVcheck
p2371
aa(lp2372
Vlook
p2373
aasg16
(lp2374
VSomeone made a special request at a restaurant that the waitress had to check up on.
p2375
aVWaitress looked at him.
p2376
asss.